target datalayout = "e-m:e-p270:32:32-p271:32:32-p272:64:64-i64:64-i128:128-f80:128-n8:16:32:64-S128"
target triple = "x86_64-pc-linux-gnu"

%"class.sat::literal" = type { i32 }
%class.vector = type { ptr }
%class.svector.5 = type { %class.vector.6 }
%class.vector.6 = type { ptr }
%"class.sat::proof_trim" = type { %"class.sat::solver", %class.svector.27, %class.svector.27, %class.svector.27, %class.uint_set, %class.uint_set, %class.uint_set, ptr, %class.vector.51, %class.vector, %class.map.52, %class.svector.15, %class.uint_set }
%"class.sat::solver" = type { %"class.sat::solver_core", i8, [7 x i8], %"struct.sat::config", %"struct.sat::stats", %class.scoped_ptr, %class.scoped_ptr.0, ptr, %"class.sat::drat", [2 x %"class.sat::clause_allocator"], i8, %class.random_gen, %"class.sat::cleaner", %class.svector.12, %"class.sat::model_converter", i8, %"class.sat::simplifier", %"class.sat::scc", %"class.sat::asymm_branch", %"class.sat::probing", i8, [7 x i8], %"class.sat::mus", i8, i8, [6 x i8], %"class.sat::justification", %"class.sat::literal", %class.ptr_vector.21, %class.ptr_vector.21, i32, %class.svector.5, %class.svector.5, %class.svector.5, %class.svector.5, %class.vector.39, %class.svector.12, %class.svector.40, %class.svector.15, %class.svector.15, %class.svector.15, %class.svector.15, %class.svector.15, %class.svector.5, %class.svector.5, i32, %class.svector.27, %class.svector.5, i32, %class.svector.42, %class.svector.42, %class.svector.42, %class.svector.42, %class.svector.42, i32, double, %class.svector.15, %class.svector.15, %class.svector.15, i8, %class.svector.25, i32, i32, i32, i32, i32, i32, %"struct.sat::backoff", i32, i32, %"struct.sat::backoff", %"struct.sat::backoff", %class.var_queue, i32, i32, i32, %class.ema, %class.ema, %class.ema, %class.ema, %class.ema, %class.svector.27, %class.svector.29, %"class.std::__cxx11::basic_string", i8, i8, %class.visit_helper, %class.svector.44, %class.scoped_limit_trail, %class.stopwatch, %class.params_ref, %"struct.sat::no_drat_params", %class.scoped_ptr.46, %class.svector.27, %"class.sat::literal_set", %"class.sat::literal_set", %class.svector.27, i32, i32, i32, i32, i8, ptr, ptr, %class.statistics, i32, i32, i32, i32, i8, i32, i32, i32, i32, i32, i32, i32, double, i32, double, i8, i8, %class.svector.27, i8, %class.svector.42, i32, i32, i32, %class.svector.27, %class.svector.27, %class.svector.25, %class.svector.5, %class.approx_set_tpl, %class.svector.27, %class.svector.27, %class.vector.11, %class.svector.27, %class.svector.37, %class.u_map, %class.svector.27 }
%"class.sat::solver_core" = type { ptr, ptr }
%"struct.sat::config" = type <{ i64, i32, i32, i32, i8, [3 x i8], i32, i32, double, i32, i8, [3 x i8], i32, i8, [3 x i8], i32, [4 x i8], double, double, i32, i32, double, double, i32, [4 x i8], %class.symbol, double, i32, i32, i8, [3 x i8], i32, i32, i8, [3 x i8], i32, i8, [3 x i8], i32, i8, [3 x i8], i32, i8, i8, [2 x i8], i32, i8, i8, i8, i8, i8, i8, i8, i8, i32, i8, i8, i8, i8, i32, double, i32, [4 x i8], double, double, double, double, i32, i8, i8, [2 x i8], double, i8, i8, [2 x i8], i32, double, i32, i32, i32, i32, i32, i32, i32, i32, i8, i8, i8, i8, i32, i32, i8, i8, i8, i8, i8, i8, i8, [5 x i8], %class.symbol, i8, i8, i8, i8, i8, i8, [2 x i8], i32, i32, i32, i8, [3 x i8], double, double, double, double, double, i8, [7 x i8] }>
%class.symbol = type { ptr }
%"struct.sat::stats" = type { i32, i32, i32, i32, i32, i32, i32, i32, i32, i32, i32, i32, i32, i32, i32, i32, i32, i32, i32, i32, i32 }
%class.scoped_ptr = type { ptr }
%class.scoped_ptr.0 = type { ptr }
%"class.sat::drat" = type { ptr, %class.svector, ptr, %"class.sat::clause_allocator", ptr, ptr, %class.svector.7, %class.svector.9, %class.vector.11, %class.svector.12, i8, i8, i8, i8, i8, %"struct.sat::drat::stats" }
%class.svector = type { %class.vector.1 }
%class.vector.1 = type { ptr }
%"class.sat::clause_allocator" = type { %class.sat_allocator, %class.id_gen }
%class.sat_allocator = type { ptr, i64, %class.ptr_vector, ptr, [65 x %class.ptr_vector.3] }
%class.ptr_vector = type { %class.vector.2 }
%class.vector.2 = type { ptr }
%class.ptr_vector.3 = type { %class.vector.4 }
%class.vector.4 = type { ptr }
%class.id_gen = type { i32, %class.svector.5 }
%class.svector.7 = type { %class.vector.8 }
%class.vector.8 = type { ptr }
%class.svector.9 = type { %class.vector.10 }
%class.vector.10 = type { ptr }
%"struct.sat::drat::stats" = type { i32, i32, i32, i32 }
%class.random_gen = type { i32 }
%"class.sat::cleaner" = type { ptr, i32, i32, i32, i32 }
%"class.sat::model_converter" = type { %class.vector.14, i32, %class.svector.15, ptr, %class.svector.17 }
%class.vector.14 = type { ptr }
%class.svector.17 = type { %class.vector.18 }
%class.vector.18 = type { ptr }
%"class.sat::simplifier" = type { ptr, i32, %"class.sat::use_list", %"class.sat::ext_use_list", %"class.sat::clause_set", %class.svector.23, i32, %class.tracked_uint_set, i8, %"class.sat::tmp_clause", %class.svector.25, i32, i32, i8, i8, i8, i8, i32, i8, i8, i32, i8, i32, i8, i8, i32, i32, i32, i32, i32, i32, i32, i32, i32, i32, i8, i32, i8, i8, i32, i32, i32, i32, i32, i32, i32, i32, i32, i32, i32, i8, i32, %class.ptr_vector.21, %class.svector.27, %class.svector.29, %class.svector.29, %class.svector.27 }
%"class.sat::use_list" = type { %class.vector.19 }
%class.vector.19 = type { ptr }
%"class.sat::ext_use_list" = type { %class.vector.20 }
%class.vector.20 = type { ptr }
%"class.sat::clause_set" = type { %class.svector.5, %class.ptr_vector.21 }
%class.svector.23 = type { %class.vector.24 }
%class.vector.24 = type { ptr }
%class.tracked_uint_set = type { %class.svector.25, %class.svector.5 }
%"class.sat::tmp_clause" = type { ptr }
%"class.sat::scc" = type { ptr, i8, i8, i32, i32, %"class.sat::big" }
%"class.sat::big" = type { ptr, i32, %class.vector.31, %class.svector.15, %class.svector.32, %class.svector.32, %class.svector.27, %class.svector.27, i8, i8, %class.vector.31 }
%class.svector.32 = type { %class.vector.33 }
%class.vector.33 = type { ptr }
%class.vector.31 = type { ptr }
%"class.sat::asymm_branch" = type { ptr, %class.params_ref, i64, %class.random_gen, i32, i32, i8, i32, i32, i8, i8, i64, i32, i32, i32, %class.svector.27, %class.svector.27, %class.svector.34, %class.svector.34, %class.svector.27, %class.svector.27 }
%class.svector.34 = type { %class.vector.35 }
%class.vector.35 = type { ptr }
%"class.sat::probing" = type { ptr, i32, %"class.sat::literal_set", %class.svector.27, i32, i8, i32, i8, i8, i64, i32, %class.vector.36, %class.svector.37, %"class.sat::big" }
%class.vector.36 = type { ptr }
%"class.sat::mus" = type <{ ptr, %class.svector.27, %class.svector.27, i8, [7 x i8], %class.svector.12, i32, [4 x i8] }>
%"class.sat::justification" = type <{ i32, [4 x i8], i64, i32, [4 x i8] }>
%class.ptr_vector.21 = type { %class.vector.22 }
%class.vector.22 = type { ptr }
%class.vector.39 = type { ptr }
%class.svector.12 = type { %class.vector.13 }
%class.vector.13 = type { ptr }
%class.svector.40 = type { %class.vector.41 }
%class.vector.41 = type { ptr }
%"struct.sat::backoff" = type { i32, i32, i32, i32, i32 }
%class.var_queue = type { %class.heap }
%class.heap = type { %"struct.var_queue<svector<unsigned int>>::lt", %class.svector.32, %class.svector.32 }
%"struct.var_queue<svector<unsigned int>>::lt" = type { ptr }
%class.ema = type { double, double, double, i32, i32 }
%class.svector.29 = type { %class.vector.30 }
%class.vector.30 = type { ptr }
%"class.std::__cxx11::basic_string" = type { %"struct.std::__cxx11::basic_string<char>::_Alloc_hider", i64, %union.anon }
%"struct.std::__cxx11::basic_string<char>::_Alloc_hider" = type { ptr }
%union.anon = type { i64, [8 x i8] }
%class.visit_helper = type { %class.svector.5, i32, i32 }
%class.svector.44 = type { %class.vector.45 }
%class.vector.45 = type { ptr }
%class.scoped_limit_trail = type { %class.svector.5, i32, i32 }
%class.stopwatch = type <{ %"class.std::chrono::time_point", %"class.std::chrono::duration", i8, [7 x i8] }>
%"class.std::chrono::time_point" = type { %"class.std::chrono::duration" }
%"class.std::chrono::duration" = type { i64 }
%class.params_ref = type { ptr }
%"struct.sat::no_drat_params" = type { %class.params_ref }
%class.scoped_ptr.46 = type { ptr }
%"class.sat::literal_set" = type { %class.tracked_uint_set }
%class.statistics = type { %class.svector.47, %class.svector.49 }
%class.svector.47 = type { %class.vector.48 }
%class.vector.48 = type { ptr }
%class.svector.49 = type { %class.vector.50 }
%class.vector.50 = type { ptr }
%class.svector.42 = type { %class.vector.43 }
%class.vector.43 = type { ptr }
%class.svector.25 = type { %class.vector.26 }
%class.vector.26 = type { ptr }
%class.approx_set_tpl = type { i32 }
%class.vector.11 = type { ptr }
%class.svector.37 = type { %class.vector.38 }
%class.vector.38 = type { ptr }
%class.u_map = type { %class.map }
%class.map = type { %class.table2map }
%class.table2map = type { %class.core_hashtable }
%class.core_hashtable = type <{ ptr, i32, i32, i32, [4 x i8] }>
%class.svector.27 = type { %class.vector.28 }
%class.vector.28 = type { ptr }
%class.vector.51 = type { ptr }
%class.map.52 = type { %class.table2map.53 }
%class.table2map.53 = type { %class.core_hashtable.54 }
%class.core_hashtable.54 = type <{ ptr, i32, i32, i32, [4 x i8] }>
%class.svector.15 = type { %class.vector.16 }
%class.vector.16 = type { ptr }
%class.uint_set = type { %class.svector.5 }
%"class.sat::clause" = type { i32, i32, i32, %class.approx_set_tpl, i32, [0 x %"class.sat::literal"] }

@.str.7 = private unnamed_addr constant [110 x i8] c"generated/home/dtcxzyw/WorkSpace/Projects/compilers/llvm-opt-benchmark/bench/z3/z3/src/sat/sat_proof_trim.cpp\00", align 1
@.str.8 = private unnamed_addr constant [29 x i8] c"UNEXPECTED CODE WAS REACHED.\00", align 1

; Function Attrs: inlinehint mustprogress nounwind uwtable
define linkonce_odr hidden noundef nonnull align 8 dereferenceable(568) ptr @_ZNK3sat6solver13cls_allocatorEv(ptr noundef nonnull align 8 dereferenceable(4264) %0) #9 comdat align 2 {
  %2 = alloca ptr, align 8
  store ptr %0, ptr %2, align 8, !tbaa !237
  %3 = load ptr, ptr %2, align 8
  %4 = getelementptr inbounds nuw %"class.sat::solver", ptr %3, i32 0, i32 9
  %5 = getelementptr inbounds nuw %"class.sat::solver", ptr %3, i32 0, i32 10
  %6 = load i8, ptr %5, align 8, !tbaa !287, !range !180, !noundef !181
  %7 = trunc i8 %6 to i1
  %8 = zext i1 %7 to i64
  %9 = getelementptr inbounds nuw [2 x %"class.sat::clause_allocator"], ptr %4, i64 0, i64 %8
  ret ptr %9
}

; Function Attrs: mustprogress nounwind uwtable
define linkonce_odr hidden void @_ZN3sat7literalC2Ev(ptr noundef nonnull align 4 dereferenceable(4) %0) unnamed_addr #7 comdat align 2 {
  %2 = alloca ptr, align 8
  store ptr %0, ptr %2, align 8, !tbaa !207
  %3 = load ptr, ptr %2, align 8
  %4 = getelementptr inbounds nuw %"class.sat::literal", ptr %3, i32 0, i32 0
  store i32 -2, ptr %4, align 4, !tbaa !236
  ret void
}

; Function Attrs: mustprogress nounwind uwtable
define linkonce_odr hidden noundef nonnull align 4 dereferenceable(4) ptr @_ZNK6vectorI5lboolLb0EjEixEj(ptr noundef nonnull align 8 dereferenceable(8) %0, i32 noundef %1) #7 comdat align 2 {
  %3 = alloca ptr, align 8
  %4 = alloca i32, align 4
  store ptr %0, ptr %3, align 8, !tbaa !344
  store i32 %1, ptr %4, align 4, !tbaa !178
  %5 = load ptr, ptr %3, align 8
  %6 = getelementptr inbounds nuw %class.vector.13, ptr %5, i32 0, i32 0
  %7 = load ptr, ptr %6, align 8, !tbaa !346
  %8 = load i32, ptr %4, align 4, !tbaa !178
  %9 = zext i32 %8 to i64
  %10 = getelementptr inbounds nuw i32, ptr %7, i64 %9
  ret ptr %10
}

; Function Attrs: mustprogress nounwind uwtable
define linkonce_odr hidden noundef i32 @_ZNK3sat7literal5indexEv(ptr noundef nonnull align 4 dereferenceable(4) %0) #7 comdat align 2 {
  %2 = alloca ptr, align 8
  store ptr %0, ptr %2, align 8, !tbaa !207
  %3 = load ptr, ptr %2, align 8
  %4 = getelementptr inbounds nuw %"class.sat::literal", ptr %3, i32 0, i32 0
  %5 = load i32, ptr %4, align 4, !tbaa !236
  ret i32 %5
}

; Function Attrs: mustprogress uwtable
define linkonce_odr hidden noundef nonnull align 4 dereferenceable(20) ptr @_ZNK3sat6solver10get_clauseEm(ptr noundef nonnull align 8 dereferenceable(4264) %0, i64 noundef %1) #4 comdat align 2 {
  %3 = alloca ptr, align 8
  %4 = alloca i64, align 8
  store ptr %0, ptr %3, align 8, !tbaa !237
  store i64 %1, ptr %4, align 8, !tbaa !212
  %5 = load ptr, ptr %3, align 8
  %6 = call noundef nonnull align 8 dereferenceable(568) ptr @_ZNK3sat6solver13cls_allocatorEv(ptr noundef nonnull align 8 dereferenceable(4264) %5)
  %7 = load i64, ptr %4, align 8, !tbaa !212
  %8 = call noundef ptr @_ZNK3sat16clause_allocator10get_clauseEm(ptr noundef nonnull align 8 dereferenceable(568) %6, i64 noundef %7)
  ret ptr %8
}

; Function Attrs: mustprogress nounwind uwtable
define linkonce_odr hidden noundef i64 @_ZNK3sat13justification17get_clause_offsetEv(ptr noundef nonnull align 8 dereferenceable(20) %0) #7 comdat align 2 {
  %2 = alloca ptr, align 8
  store ptr %0, ptr %2, align 8, !tbaa !241
  %3 = load ptr, ptr %2, align 8
  %4 = getelementptr inbounds nuw %"class.sat::justification", ptr %3, i32 0, i32 2
  %5 = load i64, ptr %4, align 8, !tbaa !248
  ret i64 %5
}

; Function Attrs: inlinehint mustprogress uwtable
define linkonce_odr hidden i32 @_ZN3sat10to_literalEj(i32 noundef %0) #5 comdat {
  %2 = alloca %"class.sat::literal", align 4
  %3 = alloca i32, align 4
  store i32 %0, ptr %3, align 4, !tbaa !178
  call void @_ZN3sat7literalC2Ev(ptr noundef nonnull align 4 dereferenceable(4) %2)
  %4 = load i32, ptr %3, align 4, !tbaa !178
  %5 = getelementptr inbounds nuw %"class.sat::literal", ptr %2, i32 0, i32 0
  store i32 %4, ptr %5, align 4, !tbaa !236
  %6 = getelementptr inbounds nuw %"class.sat::literal", ptr %2, i32 0, i32 0
  %7 = load i32, ptr %6, align 4
  ret i32 %7
}

; Function Attrs: mustprogress nounwind uwtable
define linkonce_odr hidden noundef i32 @_ZNK3sat13justification4val1Ev(ptr noundef nonnull align 8 dereferenceable(20) %0) #7 comdat align 2 {
  %2 = alloca ptr, align 8
  store ptr %0, ptr %2, align 8, !tbaa !241
  %3 = load ptr, ptr %2, align 8
  %4 = getelementptr inbounds nuw %"class.sat::justification", ptr %3, i32 0, i32 2
  %5 = load i64, ptr %4, align 8, !tbaa !248
  %6 = trunc i64 %5 to i32
  ret i32 %6
}

; Function Attrs: mustprogress uwtable
define linkonce_odr hidden noundef i32 @_ZNK3sat6solver5valueENS_7literalE(ptr noundef nonnull align 8 dereferenceable(4264) %0, i32 %1) #4 comdat align 2 {
  %3 = alloca %"class.sat::literal", align 4
  %4 = alloca ptr, align 8
  %5 = getelementptr inbounds nuw %"class.sat::literal", ptr %3, i32 0, i32 0
  store i32 %1, ptr %5, align 4
  store ptr %0, ptr %4, align 8, !tbaa !237
  %6 = load ptr, ptr %4, align 8
  %7 = getelementptr inbounds nuw %"class.sat::solver", ptr %6, i32 0, i32 36
  %8 = call noundef i32 @_ZNK3sat7literal5indexEv(ptr noundef nonnull align 4 dereferenceable(4) %3)
  %9 = call noundef nonnull align 4 dereferenceable(4) ptr @_ZNK6vectorI5lboolLb0EjEixEj(ptr noundef nonnull align 8 dereferenceable(8) %7, i32 noundef %8)
  %10 = load i32, ptr %9, align 4, !tbaa !239
  ret i32 %10
}

; Function Attrs: mustprogress nounwind uwtable
define linkonce_odr hidden noundef ptr @_ZN3sat6clause3endEv(ptr noundef nonnull align 4 dereferenceable(20) %0) #7 comdat align 2 {
  %2 = alloca ptr, align 8
  store ptr %0, ptr %2, align 8, !tbaa !182
  %3 = load ptr, ptr %2, align 8
  %4 = getelementptr inbounds nuw %"class.sat::clause", ptr %3, i32 0, i32 5
  %5 = getelementptr inbounds [0 x %"class.sat::literal"], ptr %4, i64 0, i64 0
  %6 = getelementptr inbounds nuw %"class.sat::clause", ptr %3, i32 0, i32 1
  %7 = load i32, ptr %6, align 4, !tbaa !243
  %8 = zext i32 %7 to i64
  %9 = getelementptr inbounds nuw %"class.sat::literal", ptr %5, i64 %8
  ret ptr %9
}

; Function Attrs: mustprogress nounwind uwtable
define linkonce_odr hidden noundef ptr @_ZN3sat6clause5beginEv(ptr noundef nonnull align 4 dereferenceable(20) %0) #7 comdat align 2 {
  %2 = alloca ptr, align 8
  store ptr %0, ptr %2, align 8, !tbaa !182
  %3 = load ptr, ptr %2, align 8
  %4 = getelementptr inbounds nuw %"class.sat::clause", ptr %3, i32 0, i32 5
  %5 = getelementptr inbounds [0 x %"class.sat::literal"], ptr %4, i64 0, i64 0
  ret ptr %5
}

; Function Attrs: mustprogress uwtable
define linkonce_odr hidden noundef nonnull align 4 dereferenceable(20) ptr @_ZNK3sat6solver10get_clauseERKNS_13justificationE(ptr noundef nonnull align 8 dereferenceable(4264) %0, ptr noundef nonnull align 8 dereferenceable(20) %1) #4 comdat align 2 {
  %3 = alloca ptr, align 8
  %4 = alloca ptr, align 8
  store ptr %0, ptr %3, align 8, !tbaa !237
  store ptr %1, ptr %4, align 8, !tbaa !241
  %5 = load ptr, ptr %3, align 8
  %6 = load ptr, ptr %4, align 8, !tbaa !241
  %7 = call noundef i64 @_ZNK3sat13justification17get_clause_offsetEv(ptr noundef nonnull align 8 dereferenceable(20) %6)
  %8 = call noundef nonnull align 4 dereferenceable(20) ptr @_ZNK3sat6solver10get_clauseEm(ptr noundef nonnull align 8 dereferenceable(4264) %5, i64 noundef %7)
  ret ptr %8
}

; Function Attrs: mustprogress uwtable
define linkonce_odr hidden i32 @_ZNK3sat13justification11get_literalEv(ptr noundef nonnull align 8 dereferenceable(20) %0) #4 comdat align 2 {
  %2 = alloca %"class.sat::literal", align 4
  %3 = alloca ptr, align 8
  store ptr %0, ptr %3, align 8, !tbaa !241
  %4 = load ptr, ptr %3, align 8
  %5 = call noundef i32 @_ZNK3sat13justification4val1Ev(ptr noundef nonnull align 8 dereferenceable(20) %4)
  %6 = call i32 @_ZN3sat10to_literalEj(i32 noundef %5)
  %7 = getelementptr inbounds nuw %"class.sat::literal", ptr %2, i32 0, i32 0
  store i32 %6, ptr %7, align 4
  %8 = getelementptr inbounds nuw %"class.sat::literal", ptr %2, i32 0, i32 0
  %9 = load i32, ptr %8, align 4
  ret i32 %9
}

; Function Attrs: mustprogress nounwind uwtable
define linkonce_odr hidden noundef i32 @_ZNK3sat13justification8get_kindEv(ptr noundef nonnull align 8 dereferenceable(20) %0) #7 comdat align 2 {
  %2 = alloca ptr, align 8
  store ptr %0, ptr %2, align 8, !tbaa !241
  %3 = load ptr, ptr %2, align 8
  %4 = getelementptr inbounds nuw %"class.sat::justification", ptr %3, i32 0, i32 3
  %5 = load i32, ptr %4, align 8, !tbaa !242
  %6 = and i32 %5, 7
  ret i32 %6
}

; Function Attrs: mustprogress uwtable
define hidden void @_ZN3sat10proof_trim14add_dependencyENS_13justificationE(ptr noundef nonnull align 8 dereferenceable(4376) %0, ptr noundef byval(%"class.sat::justification") align 8 %1) #4 align 2 {
  %3 = alloca ptr, align 8
  %4 = alloca %"class.sat::literal", align 4
  %5 = alloca ptr, align 8
  %6 = alloca ptr, align 8
  %7 = alloca ptr, align 8
  %8 = alloca %"class.sat::literal", align 4
  %9 = alloca %"class.sat::literal", align 4
  %10 = alloca %"class.sat::literal", align 4
  store ptr %0, ptr %3, align 8, !tbaa !3
  %11 = load ptr, ptr %3, align 8
  %12 = call noundef i32 @_ZNK3sat13justification8get_kindEv(ptr noundef nonnull align 8 dereferenceable(20) %1)
  switch i32 %12, label %46 [
    i32 1, label %13
    i32 2, label %18
    i32 3, label %45
  ]

13:                                               ; preds = %2
  %14 = call i32 @_ZNK3sat13justification11get_literalEv(ptr noundef nonnull align 8 dereferenceable(20) %1)
  %15 = getelementptr inbounds nuw %"class.sat::literal", ptr %4, i32 0, i32 0
  store i32 %14, ptr %15, align 4
  %16 = getelementptr inbounds nuw %"class.sat::literal", ptr %4, i32 0, i32 0
  %17 = load i32, ptr %16, align 4
  call void @_ZN3sat10proof_trim14add_dependencyENS_7literalE(ptr noundef nonnull align 8 dereferenceable(4376) %11, i32 %17)
  br label %47

18:                                               ; preds = %2
  call void @llvm.lifetime.start.p0(i64 8, ptr %5) #3
  %19 = getelementptr inbounds nuw %"class.sat::proof_trim", ptr %11, i32 0, i32 0
  %20 = call noundef nonnull align 4 dereferenceable(20) ptr @_ZNK3sat6solver10get_clauseERKNS_13justificationE(ptr noundef nonnull align 8 dereferenceable(4264) %19, ptr noundef nonnull align 8 dereferenceable(20) %1)
  store ptr %20, ptr %5, align 8, !tbaa !182
  call void @llvm.lifetime.start.p0(i64 8, ptr %6) #3
  %21 = load ptr, ptr %5, align 8, !tbaa !182
  %22 = call noundef ptr @_ZN3sat6clause5beginEv(ptr noundef nonnull align 4 dereferenceable(20) %21)
  store ptr %22, ptr %6, align 8, !tbaa !207
  call void @llvm.lifetime.start.p0(i64 8, ptr %7) #3
  %23 = load ptr, ptr %5, align 8, !tbaa !182
  %24 = call noundef ptr @_ZN3sat6clause3endEv(ptr noundef nonnull align 4 dereferenceable(20) %23)
  store ptr %24, ptr %7, align 8, !tbaa !207
  br label %25

25:                                               ; preds = %41, %18
  %26 = load ptr, ptr %6, align 8, !tbaa !207
  %27 = load ptr, ptr %7, align 8, !tbaa !207
  %28 = icmp ne ptr %26, %27
  br i1 %28, label %30, label %29

29:                                               ; preds = %25
  call void @llvm.lifetime.end.p0(i64 8, ptr %7) #3
  call void @llvm.lifetime.end.p0(i64 8, ptr %6) #3
  call void @llvm.lifetime.end.p0(i64 8, ptr %5) #3
  br label %44

30:                                               ; preds = %25
  call void @llvm.lifetime.start.p0(i64 4, ptr %8) #3
  %31 = load ptr, ptr %6, align 8, !tbaa !207
  call void @llvm.memcpy.p0.p0.i64(ptr align 4 %8, ptr align 4 %31, i64 4, i1 false), !tbaa.struct !208
  %32 = getelementptr inbounds nuw %"class.sat::proof_trim", ptr %11, i32 0, i32 0
  call void @llvm.memcpy.p0.p0.i64(ptr align 4 %9, ptr align 4 %8, i64 4, i1 false), !tbaa.struct !208
  %33 = getelementptr inbounds nuw %"class.sat::literal", ptr %9, i32 0, i32 0
  %34 = load i32, ptr %33, align 4
  %35 = call noundef i32 @_ZNK3sat6solver5valueENS_7literalE(ptr noundef nonnull align 8 dereferenceable(4264) %32, i32 %34)
  %36 = icmp eq i32 %35, -1
  br i1 %36, label %37, label %40

37:                                               ; preds = %30
  call void @llvm.memcpy.p0.p0.i64(ptr align 4 %10, ptr align 4 %8, i64 4, i1 false), !tbaa.struct !208
  %38 = getelementptr inbounds nuw %"class.sat::literal", ptr %10, i32 0, i32 0
  %39 = load i32, ptr %38, align 4
  call void @_ZN3sat10proof_trim14add_dependencyENS_7literalE(ptr noundef nonnull align 8 dereferenceable(4376) %11, i32 %39)
  br label %40

40:                                               ; preds = %37, %30
  call void @llvm.lifetime.end.p0(i64 4, ptr %8) #3
  br label %41

41:                                               ; preds = %40
  %42 = load ptr, ptr %6, align 8, !tbaa !207
  %43 = getelementptr inbounds nuw %"class.sat::literal", ptr %42, i32 1
  store ptr %43, ptr %6, align 8, !tbaa !207
  br label %25

44:                                               ; preds = %29
  br label %47

45:                                               ; preds = %2
  call void @_Z26notify_assertion_violationPKciS0_(ptr noundef @.str.7, i32 noundef 245, ptr noundef @.str.8)
  call void @_Z18invoke_exit_actionj(i32 noundef 114)
  br label %47

46:                                               ; preds = %2
  br label %47

47:                                               ; preds = %46, %45, %44, %13
  ret void
}