; Function Attrs: mustprogress uwtable
define hidden void @_ZN3sat10proof_trim14add_dependencyENS_13justificationE(ptr noundef nonnull align 8 dereferenceable(4376) %0, ptr noundef readonly byval(%"class.sat::justification") align 8 captures(none) %1) local_unnamed_addr #3 align 2 {
  %3 = getelementptr inbounds nuw i8, ptr %1, i64 16
  %4 = load i32, ptr %3, align 8, !tbaa !239
  %5 = and i32 %4, 7
  switch i32 %5, label %.loopexit [
    i32 1, label %6
    i32 2, label %10
    i32 3, label %33
  ]

6:                                                ; preds = %2
  %7 = getelementptr inbounds nuw i8, ptr %1, i64 8
  %8 = load i64, ptr %7, align 8, !tbaa !240
  %9 = trunc i64 %8 to i32
  tail call void @_ZN3sat10proof_trim14add_dependencyENS_7literalE(ptr noundef nonnull align 8 dereferenceable(4376) %0, i32 %9)
  br label %.loopexit

10:                                               ; preds = %2
  %11 = getelementptr inbounds nuw i8, ptr %1, i64 8
  %12 = load i64, ptr %11, align 8, !tbaa !240
  %13 = getelementptr inbounds nuw i8, ptr %0, i64 1216
  %14 = getelementptr inbounds nuw i8, ptr %0, i64 2352
  %15 = load i8, ptr %14, align 8, !tbaa !217, !range !36, !noundef !37
  %16 = zext nneg i8 %15 to i64
  %17 = getelementptr inbounds nuw [2 x %"class.sat::clause_allocator"], ptr %13, i64 0, i64 %16
  %18 = tail call noundef nonnull align 4 dereferenceable(20) ptr @_ZNK3sat16clause_allocator10get_clauseEm(ptr noundef nonnull align 8 dereferenceable(568) %17, i64 noundef %12)
  %19 = getelementptr inbounds nuw i8, ptr %18, i64 4
  %20 = load i32, ptr %19, align 4, !tbaa !218
  %21 = zext i32 %20 to i64
  %.idx = shl nuw nsw i64 %21, 2
  %22 = getelementptr inbounds nuw i8, ptr %18, i64 %.idx
  %.ptr13 = getelementptr inbounds nuw i8, ptr %22, i64 20
  %.not11 = icmp eq i32 %20, 0
  br i1 %.not11, label %.loopexit, label %.lr.ph

.lr.ph:                                           ; preds = %10
  %.ptr = getelementptr inbounds nuw i8, ptr %18, i64 20
  %23 = getelementptr inbounds nuw i8, ptr %0, i64 3288
  br label %24

24:                                               ; preds = %.lr.ph, %31
  %.012 = phi ptr [ %.ptr, %.lr.ph ], [ %32, %31 ]
  %.sroa.02.0.copyload = load i32, ptr %.012, align 4, !tbaa !9
  %25 = load ptr, ptr %23, align 8, !tbaa !204
  %26 = zext i32 %.sroa.02.0.copyload to i64
  %27 = getelementptr inbounds nuw i32, ptr %25, i64 %26
  %28 = load i32, ptr %27, align 4, !tbaa !205
  %29 = icmp eq i32 %28, -1
  br i1 %29, label %30, label %31

30:                                               ; preds = %24
  tail call void @_ZN3sat10proof_trim14add_dependencyENS_7literalE(ptr noundef nonnull align 8 dereferenceable(4376) %0, i32 %.sroa.02.0.copyload)
  br label %31

31:                                               ; preds = %30, %24
  %32 = getelementptr inbounds nuw i8, ptr %.012, i64 4
  %.not = icmp eq ptr %32, %.ptr13
  br i1 %.not, label %.loopexit, label %24

33:                                               ; preds = %2
  tail call void @_Z26notify_assertion_violationPKciS0_(ptr noundef nonnull @.str.7, i32 noundef 245, ptr noundef nonnull @.str.8)
  tail call void @_Z18invoke_exit_actionj(i32 noundef 114)
  br label %.loopexit

.loopexit:                                        ; preds = %31, %10, %2, %33, %6
  ret void
}